target datalayout = "e-m:e-p270:32:32-p271:32:32-p272:64:64-i64:64-i128:128-f80:128-n8:16:32:64-S128"
target triple = "x86_64-pc-linux-gnu"

%struct.ma_context = type { %struct.ma_backend_callbacks, i32, ptr, %struct.ma_log, i32, i64, ptr, %struct.ma_allocation_callbacks, %union.pthread_mutex_t, %union.pthread_mutex_t, i32, i32, i32, ptr, %union.anon.36, %union.anon.41 }
%struct.ma_backend_callbacks = type { ptr, ptr, ptr, ptr, ptr, ptr, ptr, ptr, ptr, ptr, ptr, ptr, ptr }
%struct.ma_log = type { [4 x %struct.ma_log_callback], i32, %struct.ma_allocation_callbacks, %union.pthread_mutex_t }
%struct.ma_log_callback = type { ptr, ptr }
%struct.ma_allocation_callbacks = type { ptr, ptr, ptr, ptr }
%union.anon.36 = type { %struct.anon.37 }
%struct.anon.37 = type { ptr, ptr, ptr, ptr, ptr, ptr, ptr, ptr, ptr, ptr, ptr, ptr, ptr, ptr, ptr, ptr, ptr, ptr, ptr, ptr, ptr, ptr, ptr, ptr, ptr, ptr, ptr, ptr, ptr, ptr, ptr, ptr, ptr, ptr, ptr, ptr, ptr, ptr, ptr, ptr, ptr, ptr, ptr, ptr, ptr, ptr, ptr, ptr, ptr, ptr, ptr, ptr, ptr, ptr, ptr, ptr, ptr, ptr, ptr, ptr, ptr, ptr, ptr, ptr, ptr, ptr, ptr, %union.pthread_mutex_t, i32 }
%union.anon.41 = type { %struct.anon.42 }
%struct.anon.42 = type { i32 }
%struct.ma_device = type { ptr, i32, i32, %struct.ma_atomic_device_state, ptr, ptr, ptr, ptr, %union.pthread_mutex_t, %struct.ma_event, %struct.ma_event, %struct.ma_event, i64, i32, i8, i8, i8, i8, i8, %struct.ma_atomic_float, %struct.ma_duplex_rb, %struct.anon.19, %struct.anon.21, %struct.anon.26, %union.anon.27 }
%struct.ma_atomic_device_state = type { i32 }
%struct.ma_event = type { i32, %union.pthread_mutex_t, %union.pthread_cond_t }
%union.pthread_cond_t = type { %struct.__pthread_cond_s }
%struct.__pthread_cond_s = type { %union.__atomic_wide_counter, %union.__atomic_wide_counter, [2 x i32], [2 x i32], i32, i32, [2 x i32] }
%union.__atomic_wide_counter = type { i64 }
%struct.ma_atomic_float = type { float }
%struct.ma_duplex_rb = type { %struct.ma_pcm_rb }
%struct.ma_pcm_rb = type { %struct.ma_data_source_base, %struct.ma_rb, i32, i32, i32 }
%struct.ma_data_source_base = type { ptr, i64, i64, i64, i64, ptr, ptr, ptr, i32 }
%struct.ma_rb = type { ptr, i32, i32, i32, i32, i32, i8, i8, %struct.ma_allocation_callbacks }
%struct.anon.19 = type { i32, ptr, ptr, %struct.anon.20 }
%struct.anon.20 = type { i32 }
%struct.anon.21 = type { ptr, %union.ma_device_id, [256 x i8], i32, i32, i32, [254 x i8], i32, i32, i32, [254 x i8], i32, i32, i32, i32, %struct.ma_data_converter, ptr, i32, i32, ptr, i64, i64, i64 }
%union.ma_device_id = type { %union.anon.17 }
%union.anon.17 = type { ptr, [248 x i8] }
%struct.ma_data_converter = type { i32, i32, i32, i32, i32, i32, i32, i32, %struct.ma_channel_converter, %struct.ma_resampler, i8, i8, i8, i8, i8, i8, ptr }
%struct.ma_channel_converter = type { i32, i32, i32, i32, i32, ptr, ptr, ptr, %union.anon.22, ptr, i32 }
%union.anon.22 = type { ptr }
%struct.ma_resampler = type { ptr, ptr, ptr, i32, i32, i32, i32, %union.anon.23, ptr, i32 }
%union.anon.23 = type { %struct.ma_linear_resampler }
%struct.ma_linear_resampler = type { %struct.ma_linear_resampler_config, i32, i32, i32, i32, %union.anon.24, %union.anon.25, %struct.ma_lpf, ptr, i32 }
%struct.ma_linear_resampler_config = type { i32, i32, i32, i32, i32, double }
%union.anon.24 = type { ptr }
%union.anon.25 = type { ptr }
%struct.ma_lpf = type { i32, i32, i32, i32, i32, ptr, ptr, ptr, i32 }
%struct.anon.26 = type { ptr, %union.ma_device_id, [256 x i8], i32, i32, i32, [254 x i8], i32, i32, i32, [254 x i8], i32, i32, i32, i32, %struct.ma_data_converter, ptr, i32, i32 }
%union.anon.27 = type { %struct.anon.31 }
%struct.anon.31 = type { i64, %struct.ma_event, %struct.ma_event, %struct.ma_semaphore, i32, i32, %union.ma_timer, double, i32, i32, i64, i64, %struct.ma_atomic_bool32 }
%struct.ma_semaphore = type { i32, %union.pthread_mutex_t, %union.pthread_cond_t }
%union.ma_timer = type { i64 }
%struct.ma_atomic_bool32 = type { i32 }
%union.pthread_mutex_t = type { %struct.__pthread_mutex_s }
%struct.__pthread_mutex_s = type { i32, i32, i32, i32, i32, i16, i16, %struct.__pthread_internal_list }
%struct.__pthread_internal_list = type { ptr, ptr }
%struct.anon.28 = type { ptr, ptr, ptr, ptr, i32, i32, i32, i32, i8, i8 }

@.str.555 = private unnamed_addr constant [21 x i8] c"[ALSA] Waking up...\0A\00", align 1
@.str.556 = private unnamed_addr constant [24 x i8] c"[ALSA] write() failed.\0A\00", align 1
@.str.557 = private unnamed_addr constant [42 x i8] c"[ALSA] Waking up completed successfully.\0A\00", align 1

; Function Attrs: nounwind uwtable
define hidden ptr @ma_context_get_log(ptr noundef %0) #0 {
  %2 = alloca ptr, align 8
  %3 = alloca ptr, align 8
  store ptr %0, ptr %3, align 8
  %4 = load ptr, ptr %3, align 8
  %5 = icmp eq ptr %4, null
  br i1 %5, label %6, label %7

6:                                                ; preds = %1
  store ptr null, ptr %2, align 8
  br label %11

7:                                                ; preds = %1
  %8 = load ptr, ptr %3, align 8
  %9 = getelementptr inbounds nuw %struct.ma_context, ptr %8, i32 0, i32 2
  %10 = load ptr, ptr %9, align 8
  store ptr %10, ptr %2, align 8
  br label %11

11:                                               ; preds = %7, %6
  %12 = load ptr, ptr %2, align 8
  ret ptr %12
}

; Function Attrs: nounwind uwtable
define hidden ptr @ma_device_get_context(ptr noundef %0) #0 {
  %2 = alloca ptr, align 8
  %3 = alloca ptr, align 8
  store ptr %0, ptr %3, align 8
  %4 = load ptr, ptr %3, align 8
  %5 = icmp eq ptr %4, null
  br i1 %5, label %6, label %7

6:                                                ; preds = %1
  store ptr null, ptr %2, align 8
  br label %11

7:                                                ; preds = %1
  %8 = load ptr, ptr %3, align 8
  %9 = getelementptr inbounds nuw %struct.ma_device, ptr %8, i32 0, i32 0
  %10 = load ptr, ptr %9, align 8
  store ptr %10, ptr %2, align 8
  br label %11

11:                                               ; preds = %7, %6
  %12 = load ptr, ptr %2, align 8
  ret ptr %12
}

; Function Attrs: nounwind uwtable
define hidden ptr @ma_device_get_log(ptr noundef %0) #0 {
  %2 = alloca ptr, align 8
  store ptr %0, ptr %2, align 8
  %3 = load ptr, ptr %2, align 8
  %4 = call ptr @ma_device_get_context(ptr noundef %3)
  %5 = call ptr @ma_context_get_log(ptr noundef %4)
  ret ptr %5
}

; Function Attrs: nounwind uwtable
define internal i32 @ma_device_data_loop_wakeup__alsa(ptr noundef %0) #0 {
  %2 = alloca i32, align 4
  %3 = alloca ptr, align 8
  %4 = alloca i64, align 8
  %5 = alloca i32, align 4
  %6 = alloca i32, align 4
  store ptr %0, ptr %3, align 8
  call void @llvm.lifetime.start.p0(i64 8, ptr %4) #21
  store i64 1, ptr %4, align 8
  call void @llvm.lifetime.start.p0(i64 4, ptr %5) #21
  store i32 0, ptr %5, align 4
  %7 = load ptr, ptr %3, align 8
  %8 = call ptr @ma_device_get_log(ptr noundef %7)
  %9 = call i32 (ptr, i32, ptr, ...) @ma_log_postf(ptr noundef %8, i32 noundef 4, ptr noundef @.str.555)
  %10 = load ptr, ptr %3, align 8
  %11 = getelementptr inbounds nuw %struct.ma_device, ptr %10, i32 0, i32 24
  %12 = getelementptr inbounds nuw %struct.anon.28, ptr %11, i32 0, i32 3
  %13 = load ptr, ptr %12, align 8
  %14 = icmp ne ptr %13, null
  br i1 %14, label %15, label %22

15:                                               ; preds = %1
  %16 = load ptr, ptr %3, align 8
  %17 = getelementptr inbounds nuw %struct.ma_device, ptr %16, i32 0, i32 24
  %18 = getelementptr inbounds nuw %struct.anon.28, ptr %17, i32 0, i32 7
  %19 = load i32, ptr %18, align 4
  %20 = call i64 @write(i32 noundef %19, ptr noundef %4, i64 noundef 8)
  %21 = trunc i64 %20 to i32
  store i32 %21, ptr %5, align 4
  br label %22

22:                                               ; preds = %15, %1
  %23 = load ptr, ptr %3, align 8
  %24 = getelementptr inbounds nuw %struct.ma_device, ptr %23, i32 0, i32 24
  %25 = getelementptr inbounds nuw %struct.anon.28, ptr %24, i32 0, i32 2
  %26 = load ptr, ptr %25, align 8
  %27 = icmp ne ptr %26, null
  br i1 %27, label %28, label %35

28:                                               ; preds = %22
  %29 = load ptr, ptr %3, align 8
  %30 = getelementptr inbounds nuw %struct.ma_device, ptr %29, i32 0, i32 24
  %31 = getelementptr inbounds nuw %struct.anon.28, ptr %30, i32 0, i32 6
  %32 = load i32, ptr %31, align 8
  %33 = call i64 @write(i32 noundef %32, ptr noundef %4, i64 noundef 8)
  %34 = trunc i64 %33 to i32
  store i32 %34, ptr %5, align 4
  br label %35

35:                                               ; preds = %28, %22
  %36 = load i32, ptr %5, align 4
  %37 = icmp slt i32 %36, 0
  br i1 %37, label %38, label %45

38:                                               ; preds = %35
  %39 = load ptr, ptr %3, align 8
  %40 = call ptr @ma_device_get_log(ptr noundef %39)
  %41 = call i32 (ptr, i32, ptr, ...) @ma_log_postf(ptr noundef %40, i32 noundef 1, ptr noundef @.str.556)
  %42 = call ptr @__errno_location() #26
  %43 = load i32, ptr %42, align 4
  %44 = call i32 @ma_result_from_errno(i32 noundef %43)
  store i32 %44, ptr %2, align 4
  store i32 1, ptr %6, align 4
  br label %49

45:                                               ; preds = %35
  %46 = load ptr, ptr %3, align 8
  %47 = call ptr @ma_device_get_log(ptr noundef %46)
  %48 = call i32 (ptr, i32, ptr, ...) @ma_log_postf(ptr noundef %47, i32 noundef 4, ptr noundef @.str.557)
  store i32 0, ptr %2, align 4
  store i32 1, ptr %6, align 4
  br label %49

49:                                               ; preds = %45, %38
  call void @llvm.lifetime.end.p0(i64 4, ptr %5) #21
  call void @llvm.lifetime.end.p0(i64 8, ptr %4) #21
  %50 = load i32, ptr %2, align 4
  ret i32 %50
}