; Function Attrs: nounwind uwtable
define internal range(i32 -51, 1) i32 @ma_device_data_loop_wakeup__alsa(ptr noundef readonly captures(address_is_null) %0) #7 {
  %2 = alloca i64, align 8
  call void @llvm.lifetime.start.p0(i64 8, ptr nonnull %2) #72
  store i64 1, ptr %2, align 8
  %3 = icmp eq ptr %0, null
  br i1 %3, label %ma_device_get_log.exit, label %ma_device_get_context.exit.i

ma_device_get_context.exit.i:                     ; preds = %1
  %4 = load ptr, ptr %0, align 8
  %5 = icmp eq ptr %4, null
  br i1 %5, label %ma_device_get_log.exit, label %6

6:                                                ; preds = %ma_device_get_context.exit.i
  %7 = getelementptr inbounds nuw i8, ptr %4, i64 112
  %8 = load ptr, ptr %7, align 8
  br label %ma_device_get_log.exit

ma_device_get_log.exit:                           ; preds = %1, %ma_device_get_context.exit.i, %6
  %.0.i1.i = phi ptr [ %8, %6 ], [ null, %ma_device_get_context.exit.i ], [ null, %1 ]
  %9 = tail call i32 (ptr, i32, ptr, ...) @ma_log_postf(ptr noundef %.0.i1.i, i32 noundef 4, ptr noundef nonnull @.str.555)
  %10 = getelementptr inbounds nuw i8, ptr %0, i64 3448
  %11 = load ptr, ptr %10, align 8
  %.not = icmp eq ptr %11, null
  br i1 %.not, label %17, label %12

12:                                               ; preds = %ma_device_get_log.exit
  %13 = getelementptr inbounds nuw i8, ptr %0, i64 3468
  %14 = load i32, ptr %13, align 4
  %15 = call i64 @write(i32 noundef %14, ptr noundef nonnull %2, i64 noundef 8) #72
  %16 = trunc i64 %15 to i32
  br label %17

17:                                               ; preds = %12, %ma_device_get_log.exit
  %.0 = phi i32 [ %16, %12 ], [ 0, %ma_device_get_log.exit ]
  %18 = getelementptr inbounds nuw i8, ptr %0, i64 3440
  %19 = load ptr, ptr %18, align 8
  %.not9 = icmp eq ptr %19, null
  br i1 %.not9, label %25, label %20

20:                                               ; preds = %17
  %21 = getelementptr inbounds nuw i8, ptr %0, i64 3464
  %22 = load i32, ptr %21, align 8
  %23 = call i64 @write(i32 noundef %22, ptr noundef nonnull %2, i64 noundef 8) #72
  %24 = trunc i64 %23 to i32
  br label %25

25:                                               ; preds = %20, %17
  %.1 = phi i32 [ %24, %20 ], [ %.0, %17 ]
  %26 = icmp slt i32 %.1, 0
  %27 = load ptr, ptr %0, align 8
  %28 = icmp eq ptr %27, null
  br i1 %26, label %ma_device_get_context.exit.i10, label %ma_device_get_context.exit.i13

ma_device_get_context.exit.i10:                   ; preds = %25
  br i1 %28, label %ma_device_get_log.exit12, label %29

29:                                               ; preds = %ma_device_get_context.exit.i10
  %30 = getelementptr inbounds nuw i8, ptr %27, i64 112
  %31 = load ptr, ptr %30, align 8
  br label %ma_device_get_log.exit12

ma_device_get_log.exit12:                         ; preds = %ma_device_get_context.exit.i10, %29
  %.0.i1.i11 = phi ptr [ %31, %29 ], [ null, %ma_device_get_context.exit.i10 ]
  %32 = tail call i32 (ptr, i32, ptr, ...) @ma_log_postf(ptr noundef %.0.i1.i11, i32 noundef 1, ptr noundef nonnull @.str.556)
  %33 = tail call ptr @__errno_location() #86
  %34 = load i32, ptr %33, align 4
  %35 = tail call fastcc i32 @ma_result_from_errno(i32 noundef %34)
  br label %40

ma_device_get_context.exit.i13:                   ; preds = %25
  br i1 %28, label %ma_device_get_log.exit15, label %36

36:                                               ; preds = %ma_device_get_context.exit.i13
  %37 = getelementptr inbounds nuw i8, ptr %27, i64 112
  %38 = load ptr, ptr %37, align 8
  br label %ma_device_get_log.exit15

ma_device_get_log.exit15:                         ; preds = %ma_device_get_context.exit.i13, %36
  %.0.i1.i14 = phi ptr [ %38, %36 ], [ null, %ma_device_get_context.exit.i13 ]
  %39 = tail call i32 (ptr, i32, ptr, ...) @ma_log_postf(ptr noundef %.0.i1.i14, i32 noundef 4, ptr noundef nonnull @.str.557)
  br label %40

40:                                               ; preds = %ma_device_get_log.exit15, %ma_device_get_log.exit12
  %.08 = phi i32 [ %35, %ma_device_get_log.exit12 ], [ 0, %ma_device_get_log.exit15 ]
  call void @llvm.lifetime.end.p0(i64 8, ptr nonnull %2) #72
  ret i32 %.08
}